target datalayout = "e-m:e-p270:32:32-p271:32:32-p272:64:64-i64:64-i128:128-f80:128-n8:16:32:64-S128"
target triple = "x86_64-pc-linux-gnu"

%"class.WasmEdge::Runtime::HostFunctionBase" = type { ptr, %"class.WasmEdge::AST::SubType", i64 }
%"class.WasmEdge::AST::SubType" = type <{ i8, [7 x i8], %"class.std::vector", %"class.WasmEdge::AST::CompositeType", %"class.std::optional", %"class.std::optional.5", [4 x i8] }>
%"class.std::vector" = type { %"struct.std::_Vector_base" }
%"struct.std::_Vector_base" = type { %"struct.std::_Vector_base<unsigned int, std::allocator<unsigned int>>::_Vector_impl" }
%"struct.std::_Vector_base<unsigned int, std::allocator<unsigned int>>::_Vector_impl" = type { %"struct.std::_Vector_base<unsigned int, std::allocator<unsigned int>>::_Vector_impl_data" }
%"struct.std::_Vector_base<unsigned int, std::allocator<unsigned int>>::_Vector_impl_data" = type { ptr, ptr, ptr }
%"class.WasmEdge::AST::CompositeType" = type { i8, [7 x i8], %"class.std::variant" }
%"class.std::variant" = type { %"struct.std::__detail::__variant::_Variant_base.base", [7 x i8] }
%"struct.std::__detail::__variant::_Variant_base.base" = type { %"struct.std::__detail::__variant::_Move_assign_base.base" }
%"struct.std::__detail::__variant::_Move_assign_base.base" = type { %"struct.std::__detail::__variant::_Copy_assign_base.base" }
%"struct.std::__detail::__variant::_Copy_assign_base.base" = type { %"struct.std::__detail::__variant::_Move_ctor_base.base" }
%"struct.std::__detail::__variant::_Move_ctor_base.base" = type { %"struct.std::__detail::__variant::_Copy_ctor_base.base" }
%"struct.std::__detail::__variant::_Copy_ctor_base.base" = type { %"struct.std::__detail::__variant::_Variant_storage.base" }
%"struct.std::__detail::__variant::_Variant_storage.base" = type { %"union.std::__detail::__variant::_Variadic_union", i8 }
%"union.std::__detail::__variant::_Variadic_union" = type { %"union.std::__detail::__variant::_Variadic_union.0" }
%"union.std::__detail::__variant::_Variadic_union.0" = type { %"struct.std::__detail::__variant::_Uninitialized.1" }
%"struct.std::__detail::__variant::_Uninitialized.1" = type { %"struct.__gnu_cxx::__aligned_membuf.2" }
%"struct.__gnu_cxx::__aligned_membuf.2" = type { [72 x i8] }
%"class.std::optional" = type { %"struct.std::_Optional_base" }
%"struct.std::_Optional_base" = type { %"struct.std::_Optional_payload" }
%"struct.std::_Optional_payload" = type { %"struct.std::_Optional_payload_base.base", [3 x i8] }
%"struct.std::_Optional_payload_base.base" = type <{ %"union.std::_Optional_payload_base<WasmEdge::AST::SubType::RecInfo>::_Storage", i8 }>
%"union.std::_Optional_payload_base<WasmEdge::AST::SubType::RecInfo>::_Storage" = type { %"struct.WasmEdge::AST::SubType::RecInfo" }
%"struct.WasmEdge::AST::SubType::RecInfo" = type { i32, i32 }
%"class.std::optional.5" = type { %"struct.std::_Optional_base.6" }
%"struct.std::_Optional_base.6" = type { %"struct.std::_Optional_payload.8" }
%"struct.std::_Optional_payload.8" = type { %"struct.std::_Optional_payload_base.base.10", [3 x i8] }
%"struct.std::_Optional_payload_base.base.10" = type <{ %"union.std::_Optional_payload_base<unsigned int>::_Storage", i8 }>
%"union.std::_Optional_payload_base<unsigned int>::_Storage" = type { i32 }
%"struct.std::__detail::_Hash_node_base" = type { ptr }
%"struct.std::__detail::_Prime_rehash_policy" = type { float, i64 }
%"class.WasmEdge::Host::WASI::Environ" = type { %"class.WasmEdge::Host::WASI::PollerContext", %"class.std::vector.20", %"class.std::vector.20", i32, %"class.std::shared_mutex", %"class.std::vector.25", %"class.std::shared_mutex", %"class.std::unordered_map.30" }
%"class.WasmEdge::Host::WASI::PollerContext" = type { %"class.std::mutex", %"class.std::unordered_map" }
%"class.std::mutex" = type { %"class.std::__mutex_base" }
%"class.std::__mutex_base" = type { %union.pthread_mutex_t }
%union.pthread_mutex_t = type { %struct.__pthread_mutex_s }
%struct.__pthread_mutex_s = type { i32, i32, i32, i32, i32, i16, i16, %struct.__pthread_internal_list }
%struct.__pthread_internal_list = type { ptr, ptr }
%"class.std::unordered_map" = type { %"class.std::_Hashtable" }
%"class.std::_Hashtable" = type { ptr, i64, %"struct.std::__detail::_Hash_node_base", i64, %"struct.std::__detail::_Prime_rehash_policy", ptr }
%"class.std::vector.20" = type { %"struct.std::_Vector_base.21" }
%"struct.std::_Vector_base.21" = type { %"struct.std::_Vector_base<std::__cxx11::basic_string<char>, std::allocator<std::__cxx11::basic_string<char>>>::_Vector_impl" }
%"struct.std::_Vector_base<std::__cxx11::basic_string<char>, std::allocator<std::__cxx11::basic_string<char>>>::_Vector_impl" = type { %"struct.std::_Vector_base<std::__cxx11::basic_string<char>, std::allocator<std::__cxx11::basic_string<char>>>::_Vector_impl_data" }
%"struct.std::_Vector_base<std::__cxx11::basic_string<char>, std::allocator<std::__cxx11::basic_string<char>>>::_Vector_impl_data" = type { ptr, ptr, ptr }
%"class.std::vector.25" = type { %"struct.std::_Vector_base.26" }
%"struct.std::_Vector_base.26" = type { %"struct.std::_Vector_base<WasmEdge::Host::WASI::EVPoller, std::allocator<WasmEdge::Host::WASI::EVPoller>>::_Vector_impl" }
%"struct.std::_Vector_base<WasmEdge::Host::WASI::EVPoller, std::allocator<WasmEdge::Host::WASI::EVPoller>>::_Vector_impl" = type { %"struct.std::_Vector_base<WasmEdge::Host::WASI::EVPoller, std::allocator<WasmEdge::Host::WASI::EVPoller>>::_Vector_impl_data" }
%"struct.std::_Vector_base<WasmEdge::Host::WASI::EVPoller, std::allocator<WasmEdge::Host::WASI::EVPoller>>::_Vector_impl_data" = type { ptr, ptr, ptr }
%"class.std::shared_mutex" = type { %"class.std::__shared_mutex_pthread" }
%"class.std::__shared_mutex_pthread" = type { %union.pthread_rwlock_t }
%union.pthread_rwlock_t = type { %struct.__pthread_rwlock_arch_t }
%struct.__pthread_rwlock_arch_t = type { i32, i32, i32, i32, i32, i32, i32, i32, i8, [7 x i8], i64, i32 }
%"class.std::unordered_map.30" = type { %"class.std::_Hashtable.31" }
%"class.std::_Hashtable.31" = type { ptr, i64, %"struct.std::__detail::_Hash_node_base", i64, %"struct.std::__detail::_Prime_rehash_policy", ptr }
%"class.cxx20::expected.358" = type { %"struct.cxx20::detail::expected_move_assign_base.359" }
%"struct.cxx20::detail::expected_move_assign_base.359" = type { %"struct.cxx20::detail::expected_copy_assign_base.360" }
%"struct.cxx20::detail::expected_copy_assign_base.360" = type { %"struct.cxx20::detail::expected_move_base.361" }
%"struct.cxx20::detail::expected_move_base.361" = type { %"struct.cxx20::detail::expected_copy_base.362" }
%"struct.cxx20::detail::expected_copy_base.362" = type { %"struct.cxx20::detail::expected_operations_base.363" }
%"struct.cxx20::detail::expected_operations_base.363" = type { %"struct.cxx20::detail::expected_view_base.364" }
%"struct.cxx20::detail::expected_view_base.364" = type { %"struct.cxx20::detail::expected_storage_base.365" }
%"struct.cxx20::detail::expected_storage_base.365" = type { i8, %union.anon.366 }
%union.anon.366 = type { %"class.cxx20::unexpected" }
%"class.cxx20::unexpected" = type { %"class.WasmEdge::ErrCode" }
%"class.WasmEdge::ErrCode" = type { %"union.WasmEdge::ErrCode::InnerT" }
%"union.WasmEdge::ErrCode::InnerT" = type { i32 }
%"class.WasmEdge::Host::Wasi.371" = type { %"class.WasmEdge::Runtime::HostFunction.372", ptr }
%"class.WasmEdge::Runtime::HostFunction.372" = type { %"class.WasmEdge::Runtime::HostFunctionBase" }

; Function Attrs: mustprogress nounwind uwtable
define linkonce_odr hidden void @_ZN5cxx206detail21expected_storage_baseIvN8WasmEdge7ErrCodeELb0ELb1EEC2IJS3_ETnPNSt9enable_ifIX18is_constructible_vIS3_DpT_EEvE4typeELPv0ELb1EEENS_10unexpect_tEDpOS7_(ptr noundef nonnull align 4 dereferenceable(8) %0, ptr noundef nonnull align 4 dereferenceable(4) %1) unnamed_addr #1 comdat align 2 {
  %3 = alloca ptr, align 8
  %4 = alloca ptr, align 8
  store ptr %0, ptr %3, align 8
  store ptr %1, ptr %4, align 8
  %5 = load ptr, ptr %3, align 8
  %6 = getelementptr inbounds %"struct.cxx20::detail::expected_storage_base.365", ptr %5, i32 0, i32 0
  store i8 0, ptr %6, align 4
  %7 = getelementptr inbounds %"struct.cxx20::detail::expected_storage_base.365", ptr %5, i32 0, i32 1
  %8 = load ptr, ptr %4, align 8
  call void @_ZN5cxx2010unexpectedIN8WasmEdge7ErrCodeEEC2IS2_TnPNSt9enable_ifIXaaaa18is_constructible_vIS2_T_EntL_ZSt9is_same_vIS2_St10in_place_tEEntL_ZS7_IS2_S3_EEEvE4typeELPv0ELb1EEEOS6_(ptr noundef nonnull align 4 dereferenceable(4) %7, ptr noundef nonnull align 4 dereferenceable(4) %8) #12
  ret void
}

; Function Attrs: mustprogress nounwind uwtable
define linkonce_odr hidden void @_ZN5cxx206detail18expected_view_baseIvN8WasmEdge7ErrCodeEECI2NS0_21expected_storage_baseIvS3_Lb0ELb1EEEIJS3_ETnPNSt9enable_ifIX18is_constructible_vIS3_DpT_EEvE4typeELPv0ELb1EEENS_10unexpect_tEDpOS7_(ptr noundef nonnull align 4 dereferenceable(8) %0, ptr noundef nonnull align 4 dereferenceable(4) %1) unnamed_addr #1 comdat align 2 {
  %3 = alloca ptr, align 8
  %4 = alloca ptr, align 8
  store ptr %0, ptr %3, align 8
  store ptr %1, ptr %4, align 8
  %5 = load ptr, ptr %3, align 8
  %6 = load ptr, ptr %4, align 8
  call void @_ZN5cxx206detail21expected_storage_baseIvN8WasmEdge7ErrCodeELb0ELb1EEC2IJS3_ETnPNSt9enable_ifIX18is_constructible_vIS3_DpT_EEvE4typeELPv0ELb1EEENS_10unexpect_tEDpOS7_(ptr noundef nonnull align 4 dereferenceable(8) %5, ptr noundef nonnull align 4 dereferenceable(4) %6) #12
  ret void
}

; Function Attrs: mustprogress nounwind uwtable
define linkonce_odr hidden void @_ZN5cxx206detail24expected_operations_baseIvN8WasmEdge7ErrCodeEECI2NS0_21expected_storage_baseIvS3_Lb0ELb1EEEIJS3_ETnPNSt9enable_ifIX18is_constructible_vIS3_DpT_EEvE4typeELPv0ELb1EEENS_10unexpect_tEDpOS7_(ptr noundef nonnull align 4 dereferenceable(8) %0, ptr noundef nonnull align 4 dereferenceable(4) %1) unnamed_addr #1 comdat align 2 {
  %3 = alloca ptr, align 8
  %4 = alloca ptr, align 8
  store ptr %0, ptr %3, align 8
  store ptr %1, ptr %4, align 8
  %5 = load ptr, ptr %3, align 8
  %6 = load ptr, ptr %4, align 8
  call void @_ZN5cxx206detail18expected_view_baseIvN8WasmEdge7ErrCodeEECI2NS0_21expected_storage_baseIvS3_Lb0ELb1EEEIJS3_ETnPNSt9enable_ifIX18is_constructible_vIS3_DpT_EEvE4typeELPv0ELb1EEENS_10unexpect_tEDpOS7_(ptr noundef nonnull align 4 dereferenceable(8) %5, ptr noundef nonnull align 4 dereferenceable(4) %6) #12
  ret void
}

; Function Attrs: mustprogress nounwind uwtable
define linkonce_odr hidden void @_ZN5cxx206detail18expected_copy_baseIvN8WasmEdge7ErrCodeELb0EECI2NS0_21expected_storage_baseIvS3_Lb0ELb1EEEIJS3_ETnPNSt9enable_ifIX18is_constructible_vIS3_DpT_EEvE4typeELPv0ELb1EEENS_10unexpect_tEDpOS7_(ptr noundef nonnull align 4 dereferenceable(8) %0, ptr noundef nonnull align 4 dereferenceable(4) %1) unnamed_addr #1 comdat align 2 {
  %3 = alloca ptr, align 8
  %4 = alloca ptr, align 8
  store ptr %0, ptr %3, align 8
  store ptr %1, ptr %4, align 8
  %5 = load ptr, ptr %3, align 8
  %6 = load ptr, ptr %4, align 8
  call void @_ZN5cxx206detail24expected_operations_baseIvN8WasmEdge7ErrCodeEECI2NS0_21expected_storage_baseIvS3_Lb0ELb1EEEIJS3_ETnPNSt9enable_ifIX18is_constructible_vIS3_DpT_EEvE4typeELPv0ELb1EEENS_10unexpect_tEDpOS7_(ptr noundef nonnull align 4 dereferenceable(8) %5, ptr noundef nonnull align 4 dereferenceable(4) %6) #12
  ret void
}

; Function Attrs: mustprogress nounwind uwtable
define linkonce_odr hidden void @_ZN5cxx206detail18expected_move_baseIvN8WasmEdge7ErrCodeELb0EECI2NS0_21expected_storage_baseIvS3_Lb0ELb1EEEIJS3_ETnPNSt9enable_ifIX18is_constructible_vIS3_DpT_EEvE4typeELPv0ELb1EEENS_10unexpect_tEDpOS7_(ptr noundef nonnull align 4 dereferenceable(8) %0, ptr noundef nonnull align 4 dereferenceable(4) %1) unnamed_addr #1 comdat align 2 {
  %3 = alloca ptr, align 8
  %4 = alloca ptr, align 8
  store ptr %0, ptr %3, align 8
  store ptr %1, ptr %4, align 8
  %5 = load ptr, ptr %3, align 8
  %6 = load ptr, ptr %4, align 8
  call void @_ZN5cxx206detail18expected_copy_baseIvN8WasmEdge7ErrCodeELb0EECI2NS0_21expected_storage_baseIvS3_Lb0ELb1EEEIJS3_ETnPNSt9enable_ifIX18is_constructible_vIS3_DpT_EEvE4typeELPv0ELb1EEENS_10unexpect_tEDpOS7_(ptr noundef nonnull align 4 dereferenceable(8) %5, ptr noundef nonnull align 4 dereferenceable(4) %6) #12
  ret void
}

; Function Attrs: mustprogress nounwind uwtable
define linkonce_odr hidden void @_ZN5cxx206detail25expected_copy_assign_baseIvN8WasmEdge7ErrCodeELb0EECI2NS0_21expected_storage_baseIvS3_Lb0ELb1EEEIJS3_ETnPNSt9enable_ifIX18is_constructible_vIS3_DpT_EEvE4typeELPv0ELb1EEENS_10unexpect_tEDpOS7_(ptr noundef nonnull align 4 dereferenceable(8) %0, ptr noundef nonnull align 4 dereferenceable(4) %1) unnamed_addr #1 comdat align 2 {
  %3 = alloca ptr, align 8
  %4 = alloca ptr, align 8
  store ptr %0, ptr %3, align 8
  store ptr %1, ptr %4, align 8
  %5 = load ptr, ptr %3, align 8
  %6 = load ptr, ptr %4, align 8
  call void @_ZN5cxx206detail18expected_move_baseIvN8WasmEdge7ErrCodeELb0EECI2NS0_21expected_storage_baseIvS3_Lb0ELb1EEEIJS3_ETnPNSt9enable_ifIX18is_constructible_vIS3_DpT_EEvE4typeELPv0ELb1EEENS_10unexpect_tEDpOS7_(ptr noundef nonnull align 4 dereferenceable(8) %5, ptr noundef nonnull align 4 dereferenceable(4) %6) #12
  ret void
}

; Function Attrs: mustprogress nounwind uwtable
define linkonce_odr hidden void @_ZN8WasmEdge7ErrCode6InnerTC2Ej(ptr noundef nonnull align 4 dereferenceable(4) %0, i32 noundef %1) unnamed_addr #1 comdat align 2 {
  %3 = alloca ptr, align 8
  %4 = alloca i32, align 4
  store ptr %0, ptr %3, align 8
  store i32 %1, ptr %4, align 4
  %5 = load ptr, ptr %3, align 8
  %6 = load i32, ptr %4, align 4
  store i32 %6, ptr %5, align 4
  ret void
}

; Function Attrs: mustprogress nounwind uwtable
define linkonce_odr hidden void @_ZN5cxx206detail26expected_default_ctor_baseIvN8WasmEdge7ErrCodeELb1EEC2ESt10in_place_t(ptr noundef nonnull align 1 dereferenceable(1) %0) unnamed_addr #1 comdat align 2 {
  %2 = alloca ptr, align 8
  store ptr %0, ptr %2, align 8
  ret void
}

; Function Attrs: mustprogress nounwind uwtable
define linkonce_odr hidden void @_ZN5cxx206detail25expected_move_assign_baseIvN8WasmEdge7ErrCodeELb0EECI2NS0_21expected_storage_baseIvS3_Lb0ELb1EEEIJS3_ETnPNSt9enable_ifIX18is_constructible_vIS3_DpT_EEvE4typeELPv0ELb1EEENS_10unexpect_tEDpOS7_(ptr noundef nonnull align 4 dereferenceable(8) %0, ptr noundef nonnull align 4 dereferenceable(4) %1) unnamed_addr #1 comdat align 2 {
  %3 = alloca ptr, align 8
  %4 = alloca ptr, align 8
  store ptr %0, ptr %3, align 8
  store ptr %1, ptr %4, align 8
  %5 = load ptr, ptr %3, align 8
  %6 = load ptr, ptr %4, align 8
  call void @_ZN5cxx206detail25expected_copy_assign_baseIvN8WasmEdge7ErrCodeELb0EECI2NS0_21expected_storage_baseIvS3_Lb0ELb1EEEIJS3_ETnPNSt9enable_ifIX18is_constructible_vIS3_DpT_EEvE4typeELPv0ELb1EEENS_10unexpect_tEDpOS7_(ptr noundef nonnull align 4 dereferenceable(8) %5, ptr noundef nonnull align 4 dereferenceable(4) %6) #12
  ret void
}

; Function Attrs: mustprogress nounwind uwtable
define linkonce_odr hidden void @_ZN8WasmEdge7ErrCodeC2ERKS0_(ptr noundef nonnull align 4 dereferenceable(4) %0, ptr noundef nonnull align 4 dereferenceable(4) %1) unnamed_addr #1 comdat align 2 personality ptr @__gxx_personality_v0 {
  %3 = alloca ptr, align 8
  %4 = alloca ptr, align 8
  store ptr %0, ptr %3, align 8
  store ptr %1, ptr %4, align 8
  %5 = load ptr, ptr %3, align 8
  %6 = getelementptr inbounds %"class.WasmEdge::ErrCode", ptr %5, i32 0, i32 0
  %7 = load ptr, ptr %4, align 8
  %8 = getelementptr inbounds %"class.WasmEdge::ErrCode", ptr %7, i32 0, i32 0
  %9 = load i32, ptr %8, align 4
  invoke void @_ZN8WasmEdge7ErrCode6InnerTC2Ej(ptr noundef nonnull align 4 dereferenceable(4) %6, i32 noundef %9)
          to label %10 unwind label %11

10:                                               ; preds = %2
  ret void

11:                                               ; preds = %2
  %12 = landingpad { ptr, i32 }
          catch ptr null
  %13 = extractvalue { ptr, i32 } %12, 0
  call void @__clang_call_terminate(ptr %13) #13
  unreachable
}

; Function Attrs: noreturn nounwind uwtable
define linkonce_odr hidden void @__clang_call_terminate(ptr noundef %0) #4 comdat {
  %2 = call ptr @__cxa_begin_catch(ptr %0) #12
  call void @_ZSt9terminatev() #13
  unreachable
}

; Function Attrs: mustprogress nounwind uwtable
define linkonce_odr hidden void @_ZN8WasmEdge7ErrCode6InnerTC2ENS0_5ValueE(ptr noundef nonnull align 4 dereferenceable(4) %0, i32 noundef %1) unnamed_addr #1 comdat align 2 {
  %3 = alloca ptr, align 8
  %4 = alloca i32, align 4
  store ptr %0, ptr %3, align 8
  store i32 %1, ptr %4, align 4
  %5 = load ptr, ptr %3, align 8
  %6 = load i32, ptr %4, align 4
  store i32 %6, ptr %5, align 4
  ret void
}

; Function Attrs: mustprogress nounwind uwtable
define linkonce_odr hidden void @_ZN5cxx208expectedIvN8WasmEdge7ErrCodeEEC2IJS2_ETnPNSt9enable_ifIX18is_constructible_vIS2_DpT_EEvE4typeELPv0ELb1EEENS_10unexpect_tEDpOS6_(ptr noundef nonnull align 4 dereferenceable(8) %0, ptr noundef nonnull align 4 dereferenceable(4) %1) unnamed_addr #1 comdat align 2 personality ptr @__gxx_personality_v0 {
  %3 = alloca ptr, align 8
  %4 = alloca ptr, align 8
  store ptr %0, ptr %3, align 8
  store ptr %1, ptr %4, align 8
  %5 = load ptr, ptr %3, align 8
  %6 = load ptr, ptr %4, align 8
  call void @_ZN5cxx206detail25expected_move_assign_baseIvN8WasmEdge7ErrCodeELb0EECI2NS0_21expected_storage_baseIvS3_Lb0ELb1EEEIJS3_ETnPNSt9enable_ifIX18is_constructible_vIS3_DpT_EEvE4typeELPv0ELb1EEENS_10unexpect_tEDpOS7_(ptr noundef nonnull align 4 dereferenceable(8) %5, ptr noundef nonnull align 4 dereferenceable(4) %6) #12
  invoke void @_ZN5cxx206detail26expected_default_ctor_baseIvN8WasmEdge7ErrCodeELb1EEC2ESt10in_place_t(ptr noundef nonnull align 1 dereferenceable(1) %5)
          to label %7 unwind label %8

7:                                                ; preds = %2
  ret void

8:                                                ; preds = %2
  %9 = landingpad { ptr, i32 }
          catch ptr null
  %10 = extractvalue { ptr, i32 } %9, 0
  call void @__clang_call_terminate(ptr %10) #13
  unreachable
}

; Function Attrs: mustprogress nounwind uwtable
define linkonce_odr hidden noundef nonnull align 4 dereferenceable(4) ptr @_ZNR5cxx2010unexpectedIN8WasmEdge7ErrCodeEE5valueEv(ptr noundef nonnull align 4 dereferenceable(4) %0) #1 comdat align 2 {
  %2 = alloca ptr, align 8
  store ptr %0, ptr %2, align 8
  %3 = load ptr, ptr %2, align 8
  %4 = getelementptr inbounds %"class.cxx20::unexpected", ptr %3, i32 0, i32 0
  ret ptr %4
}

; Function Attrs: mustprogress nounwind uwtable
define linkonce_odr hidden void @_ZN5cxx2010unexpectedIN8WasmEdge7ErrCodeEEC2IS2_TnPNSt9enable_ifIXaaaa18is_constructible_vIS2_T_EntL_ZSt9is_same_vIS2_St10in_place_tEEntL_ZS7_IS2_S3_EEEvE4typeELPv0ELb1EEEOS6_(ptr noundef nonnull align 4 dereferenceable(4) %0, ptr noundef nonnull align 4 dereferenceable(4) %1) unnamed_addr #1 comdat align 2 {
  %3 = alloca ptr, align 8
  %4 = alloca ptr, align 8
  store ptr %0, ptr %3, align 8
  store ptr %1, ptr %4, align 8
  %5 = load ptr, ptr %3, align 8
  %6 = getelementptr inbounds %"class.cxx20::unexpected", ptr %5, i32 0, i32 0
  %7 = load ptr, ptr %4, align 8
  call void @_ZN8WasmEdge7ErrCodeC2ERKS0_(ptr noundef nonnull align 4 dereferenceable(4) %6, ptr noundef nonnull align 4 dereferenceable(4) %7) #12
  ret void
}

; Function Attrs: mustprogress nounwind uwtable
define linkonce_odr hidden void @_ZN8WasmEdge7ErrCodeC2ENS0_5ValueE(ptr noundef nonnull align 4 dereferenceable(4) %0, i32 noundef %1) unnamed_addr #1 comdat align 2 personality ptr @__gxx_personality_v0 {
  %3 = alloca ptr, align 8
  %4 = alloca i32, align 4
  store ptr %0, ptr %3, align 8
  store i32 %1, ptr %4, align 4
  %5 = load ptr, ptr %3, align 8
  %6 = getelementptr inbounds %"class.WasmEdge::ErrCode", ptr %5, i32 0, i32 0
  %7 = load i32, ptr %4, align 4
  invoke void @_ZN8WasmEdge7ErrCode6InnerTC2ENS0_5ValueE(ptr noundef nonnull align 4 dereferenceable(4) %6, i32 noundef %7)
          to label %8 unwind label %9

8:                                                ; preds = %2
  ret void

9:                                                ; preds = %2
  %10 = landingpad { ptr, i32 }
          catch ptr null
  %11 = extractvalue { ptr, i32 } %10, 0
  call void @__clang_call_terminate(ptr %11) #13
  unreachable
}

; Function Attrs: mustprogress nounwind uwtable
define linkonce_odr hidden void @_ZN5cxx208expectedIvN8WasmEdge7ErrCodeEEC2IS2_TnPNSt9enable_ifIX18is_constructible_vIS2_OT_EEvE4typeELPv0EEEONS_10unexpectedIS6_EE(ptr noundef nonnull align 4 dereferenceable(8) %0, ptr noundef nonnull align 4 dereferenceable(4) %1) unnamed_addr #1 comdat align 2 {
  %3 = alloca ptr, align 8
  %4 = alloca ptr, align 8
  store ptr %0, ptr %3, align 8
  store ptr %1, ptr %4, align 8
  %5 = load ptr, ptr %3, align 8
  %6 = load ptr, ptr %4, align 8
  %7 = call noundef nonnull align 4 dereferenceable(4) ptr @_ZNR5cxx2010unexpectedIN8WasmEdge7ErrCodeEE5valueEv(ptr noundef nonnull align 4 dereferenceable(4) %6) #12
  call void @_ZN5cxx208expectedIvN8WasmEdge7ErrCodeEEC2IJS2_ETnPNSt9enable_ifIX18is_constructible_vIS2_DpT_EEvE4typeELPv0ELb1EEENS_10unexpect_tEDpOS6_(ptr noundef nonnull align 4 dereferenceable(8) %5, ptr noundef nonnull align 4 dereferenceable(4) %7) #12
  ret void
}

; Function Attrs: mustprogress nounwind uwtable
define linkonce_odr hidden void @_ZN8WasmEdge8UnexpectIJNS_7ErrCode5ValueEEEEDaDpT_(ptr dead_on_unwind noalias writable sret(%"class.cxx20::unexpected") align 4 %0, i32 noundef %1) #1 comdat {
  %3 = alloca ptr, align 8
  %4 = alloca i32, align 4
  %5 = alloca %"class.WasmEdge::ErrCode", align 4
  store ptr %0, ptr %3, align 8
  store i32 %1, ptr %4, align 4
  %6 = load i32, ptr %4, align 4
  call void @_ZN8WasmEdge7ErrCodeC2ENS0_5ValueE(ptr noundef nonnull align 4 dereferenceable(4) %5, i32 noundef %6) #12
  call void @_ZN5cxx2010unexpectedIN8WasmEdge7ErrCodeEEC2IS2_TnPNSt9enable_ifIXaaaa18is_constructible_vIS2_T_EntL_ZSt9is_same_vIS2_St10in_place_tEEntL_ZS7_IS2_S3_EEEvE4typeELPv0ELb1EEEOS6_(ptr noundef nonnull align 4 dereferenceable(4) %0, ptr noundef nonnull align 4 dereferenceable(4) %5) #12
  ret void
}

; Function Attrs: mustprogress nounwind uwtable
define linkonce_odr hidden void @_ZN8WasmEdge4Host4WASI7Environ8procExitEj(ptr noundef nonnull align 8 dereferenceable(344) %0, i32 noundef %1) #1 comdat align 2 {
  %3 = alloca ptr, align 8
  %4 = alloca i32, align 4
  store ptr %0, ptr %3, align 8
  store i32 %1, ptr %4, align 4
  %5 = load ptr, ptr %3, align 8
  %6 = load i32, ptr %4, align 4
  %7 = getelementptr inbounds %"class.WasmEdge::Host::WASI::Environ", ptr %5, i32 0, i32 3
  store i32 %6, ptr %7, align 8
  ret void
}

; Function Attrs: mustprogress uwtable
define void @_ZN8WasmEdge4Host12WasiProcExit4bodyERKNS_7Runtime12CallingFrameEj(ptr dead_on_unwind noalias writable sret(%"class.cxx20::expected.358") align 4 %0, ptr noundef nonnull align 8 dereferenceable(168) %1, ptr noundef nonnull align 8 dereferenceable(16) %2, i32 noundef %3) #0 align 2 {
  %5 = alloca ptr, align 8
  %6 = alloca ptr, align 8
  %7 = alloca ptr, align 8
  %8 = alloca i32, align 4
  %9 = alloca %"class.cxx20::unexpected", align 4
  store ptr %0, ptr %5, align 8
  store ptr %1, ptr %6, align 8
  store ptr %2, ptr %7, align 8
  store i32 %3, ptr %8, align 4
  %10 = load ptr, ptr %6, align 8
  %11 = getelementptr inbounds %"class.WasmEdge::Host::Wasi.371", ptr %10, i32 0, i32 1
  %12 = load ptr, ptr %11, align 8
  %13 = load i32, ptr %8, align 4
  call void @_ZN8WasmEdge4Host4WASI7Environ8procExitEj(ptr noundef nonnull align 8 dereferenceable(344) %12, i32 noundef %13) #12
  call void @_ZN8WasmEdge8UnexpectIJNS_7ErrCode5ValueEEEEDaDpT_(ptr dead_on_unwind writable sret(%"class.cxx20::unexpected") align 4 %9, i32 noundef 1)
  call void @_ZN5cxx208expectedIvN8WasmEdge7ErrCodeEEC2IS2_TnPNSt9enable_ifIX18is_constructible_vIS2_OT_EEvE4typeELPv0EEEONS_10unexpectedIS6_EE(ptr noundef nonnull align 4 dereferenceable(8) %0, ptr noundef nonnull align 4 dereferenceable(4) %9)
  ret void
}