; Function Attrs: mustprogress nofree norecurse nosync nounwind willreturn memory(write, argmem: readwrite, inaccessiblemem: none) uwtable
define void @_ZN8WasmEdge4Host12WasiProcExit4bodyERKNS_7Runtime12CallingFrameEj(ptr dead_on_unwind noalias nocapture writable writeonly sret(%"class.cxx20::expected.358") align 4 %0, ptr nocapture noundef nonnull readonly align 8 dereferenceable(168) %1, ptr nocapture noundef nonnull readnone align 8 dereferenceable(16) %2, i32 noundef %3) local_unnamed_addr #4 align 2 personality ptr @__gxx_personality_v0 {
  %5 = getelementptr inbounds i8, ptr %1, i64 160
  %6 = load ptr, ptr %5, align 8
  %7 = getelementptr inbounds i8, ptr %6, i64 144
  store i32 %3, ptr %7, align 8
  store i8 0, ptr %0, align 4
  %8 = getelementptr inbounds i8, ptr %0, i64 4
  store i32 1, ptr %8, align 4
  ret void
}